; Function Attrs: mustprogress nofree norecurse nosync nounwind memory(argmem: readwrite) uwtable
define void @_Z13insertionSortPfPiiii(ptr noundef captures(none) %0, ptr noundef captures(none) %1, i32 noundef %2, i32 noundef %3, i32 noundef %4) local_unnamed_addr #1 {
  %6 = icmp slt i32 %4, 0
  %.not52 = icmp sgt i32 %2, %3
  %or.cond = or i1 %6, %.not52
  br i1 %or.cond, label %.loopexit49, label %.preheader47.preheader

.preheader47.preheader:                           ; preds = %5
  %7 = sext i32 %2 to i64
  br label %.preheader47

.preheader47:                                     ; preds = %.preheader47.preheader, %.critedge
  %indvars.iv = phi i64 [ %7, %.preheader47.preheader ], [ %indvars.iv.next, %.critedge ]
  %indvars63 = trunc i64 %indvars.iv to i32
  %8 = icmp slt i32 %2, %indvars63
  br i1 %8, label %.lr.ph.preheader, label %.critedge

.lr.ph.preheader:                                 ; preds = %.preheader47
  %.phi.trans.insert = getelementptr inbounds float, ptr %0, i64 %indvars.iv
  %.pre = load float, ptr %.phi.trans.insert, align 4, !tbaa !10
  br label %.lr.ph

.lr.ph:                                           ; preds = %.lr.ph.preheader, %12
  %indvars.iv60 = phi i64 [ %indvars.iv, %.lr.ph.preheader ], [ %indvars.iv.next61, %12 ]
  %indvars.iv.next61 = add nsw i64 %indvars.iv60, -1
  %9 = getelementptr inbounds float, ptr %0, i64 %indvars.iv.next61
  %10 = load float, ptr %9, align 4, !tbaa !10
  %11 = fcmp ogt float %10, %.pre
  br i1 %11, label %12, label %.critedge

12:                                               ; preds = %.lr.ph
  %13 = getelementptr inbounds float, ptr %0, i64 %indvars.iv60
  store float %10, ptr %13, align 4, !tbaa !10
  store float %.pre, ptr %9, align 4, !tbaa !10
  %14 = getelementptr inbounds i32, ptr %1, i64 %indvars.iv60
  %15 = getelementptr inbounds i32, ptr %1, i64 %indvars.iv.next61
  %16 = load i32, ptr %14, align 4, !tbaa !4
  %17 = load i32, ptr %15, align 4, !tbaa !4
  store i32 %17, ptr %14, align 4, !tbaa !4
  store i32 %16, ptr %15, align 4, !tbaa !4
  %18 = icmp sgt i64 %indvars.iv.next61, %7
  br i1 %18, label %.lr.ph, label %.critedge, !llvm.loop !12

.critedge:                                        ; preds = %12, %.lr.ph, %.preheader47
  %indvars.iv.next = add nsw i64 %indvars.iv, 1
  %.not.not = icmp sgt i32 %3, %indvars63
  br i1 %.not.not, label %.preheader47, label %.loopexit49, !llvm.loop !13

.loopexit49:                                      ; preds = %.critedge, %5
  %19 = icmp sgt i32 %4, -1
  %or.cond59 = or i1 %19, %.not52
  br i1 %or.cond59, label %.loopexit, label %.preheader.preheader

.preheader.preheader:                             ; preds = %.loopexit49
  %20 = sext i32 %2 to i64
  br label %.preheader

.preheader:                                       ; preds = %.preheader.preheader, %.critedge2
  %indvars.iv64 = phi i64 [ %20, %.preheader.preheader ], [ %indvars.iv.next65, %.critedge2 ]
  %indvars69 = trunc i64 %indvars.iv64 to i32
  %21 = icmp slt i32 %2, %indvars69
  br i1 %21, label %.lr.ph55.preheader, label %.critedge2

.lr.ph55.preheader:                               ; preds = %.preheader
  %.phi.trans.insert70 = getelementptr inbounds float, ptr %0, i64 %indvars.iv64
  %.pre71 = load float, ptr %.phi.trans.insert70, align 4, !tbaa !10
  br label %.lr.ph55

.lr.ph55:                                         ; preds = %.lr.ph55.preheader, %25
  %indvars.iv66 = phi i64 [ %indvars.iv64, %.lr.ph55.preheader ], [ %indvars.iv.next67, %25 ]
  %indvars.iv.next67 = add nsw i64 %indvars.iv66, -1
  %22 = getelementptr inbounds float, ptr %0, i64 %indvars.iv.next67
  %23 = load float, ptr %22, align 4, !tbaa !10
  %24 = fcmp olt float %23, %.pre71
  br i1 %24, label %25, label %.critedge2

25:                                               ; preds = %.lr.ph55
  %26 = getelementptr inbounds float, ptr %0, i64 %indvars.iv66
  store float %23, ptr %26, align 4, !tbaa !10
  store float %.pre71, ptr %22, align 4, !tbaa !10
  %27 = getelementptr inbounds i32, ptr %1, i64 %indvars.iv66
  %28 = getelementptr inbounds i32, ptr %1, i64 %indvars.iv.next67
  %29 = load i32, ptr %27, align 4, !tbaa !4
  %30 = load i32, ptr %28, align 4, !tbaa !4
  store i32 %30, ptr %27, align 4, !tbaa !4
  store i32 %29, ptr %28, align 4, !tbaa !4
  %31 = icmp sgt i64 %indvars.iv.next67, %20
  br i1 %31, label %.lr.ph55, label %.critedge2, !llvm.loop !14

.critedge2:                                       ; preds = %25, %.lr.ph55, %.preheader
  %indvars.iv.next65 = add nsw i64 %indvars.iv64, 1
  %.not45.not = icmp sgt i32 %3, %indvars69
  br i1 %.not45.not, label %.preheader, label %.loopexit, !llvm.loop !15

.loopexit:                                        ; preds = %.critedge2, %.loopexit49
  ret void
}